target datalayout = "e-m:e-p270:32:32-p271:32:32-p272:64:64-i64:64-i128:128-f80:128-n8:16:32:64-S128"
target triple = "x86_64-pc-linux-gnu"

%struct.bignum_st = type { ptr, i32, i32, i32, i32 }

; Function Attrs: nounwind uwtable
define internal i64 @constant_time_select_ulong(i32 noundef %0, i64 noundef %1, i64 noundef %2) #0 {
  %4 = alloca i32, align 4
  %5 = alloca i64, align 8
  %6 = alloca i64, align 8
  %7 = alloca i64, align 8
  store i32 %0, ptr %4, align 4, !tbaa !19
  store i64 %1, ptr %5, align 8, !tbaa !11
  store i64 %2, ptr %6, align 8, !tbaa !11
  call void @llvm.lifetime.start.p0(i64 8, ptr %7) #7
  %8 = load i32, ptr %4, align 4, !tbaa !19
  %9 = sext i32 %8 to i64
  store i64 %9, ptr %7, align 8, !tbaa !11
  %10 = load i64, ptr %7, align 8, !tbaa !11
  %11 = add i64 %10, -1
  store i64 %11, ptr %7, align 8, !tbaa !11
  %12 = load i64, ptr %7, align 8, !tbaa !11
  %13 = xor i64 %12, -1
  %14 = load i64, ptr %5, align 8, !tbaa !11
  %15 = and i64 %13, %14
  %16 = load i64, ptr %7, align 8, !tbaa !11
  %17 = load i64, ptr %6, align 8, !tbaa !11
  %18 = and i64 %16, %17
  %19 = or i64 %15, %18
  call void @llvm.lifetime.end.p0(i64 8, ptr %7) #7
  ret i64 %19
}

; Function Attrs: nounwind uwtable
define internal i32 @constant_time_le_size_t(i64 noundef %0, i64 noundef %1) #0 {
  %3 = alloca i64, align 8
  %4 = alloca i64, align 8
  store i64 %0, ptr %3, align 8, !tbaa !11
  store i64 %1, ptr %4, align 8, !tbaa !11
  %5 = load i64, ptr %3, align 8, !tbaa !11
  %6 = load i64, ptr %4, align 8, !tbaa !11
  %7 = sub i64 %5, %6
  %8 = sub i64 %7, 1
  %9 = lshr i64 %8, 63
  %10 = and i64 %9, 1
  %11 = trunc i64 %10 to i32
  ret i32 %11
}

; Function Attrs: nounwind uwtable
define internal i64 @read_word_padded(ptr noundef %0, i64 noundef %1) #0 {
  %3 = alloca ptr, align 8
  %4 = alloca i64, align 8
  %5 = alloca i64, align 8
  store ptr %0, ptr %3, align 8, !tbaa !13
  store i64 %1, ptr %4, align 8, !tbaa !11
  call void @llvm.lifetime.start.p0(i64 8, ptr %5) #7
  %6 = load ptr, ptr %3, align 8, !tbaa !13
  %7 = getelementptr inbounds nuw %struct.bignum_st, ptr %6, i32 0, i32 0
  %8 = load ptr, ptr %7, align 8, !tbaa !22
  %9 = load ptr, ptr %3, align 8, !tbaa !13
  %10 = getelementptr inbounds nuw %struct.bignum_st, ptr %9, i32 0, i32 2
  %11 = load i32, ptr %10, align 4, !tbaa !27
  %12 = sext i32 %11 to i64
  %13 = load i64, ptr %4, align 8, !tbaa !11
  %14 = call i32 @constant_time_le_size_t(i64 noundef %12, i64 noundef %13)
  %15 = load ptr, ptr %3, align 8, !tbaa !13
  %16 = getelementptr inbounds nuw %struct.bignum_st, ptr %15, i32 0, i32 2
  %17 = load i32, ptr %16, align 4, !tbaa !27
  %18 = sub nsw i32 %17, 1
  %19 = sext i32 %18 to i64
  %20 = load i64, ptr %4, align 8, !tbaa !11
  %21 = call i64 @constant_time_select_ulong(i32 noundef %14, i64 noundef %19, i64 noundef %20)
  %22 = getelementptr inbounds nuw i64, ptr %8, i64 %21
  %23 = load i64, ptr %22, align 8, !tbaa !11
  store i64 %23, ptr %5, align 8, !tbaa !11
  %24 = load ptr, ptr %3, align 8, !tbaa !13
  %25 = getelementptr inbounds nuw %struct.bignum_st, ptr %24, i32 0, i32 1
  %26 = load i32, ptr %25, align 8, !tbaa !15
  %27 = sext i32 %26 to i64
  %28 = load i64, ptr %4, align 8, !tbaa !11
  %29 = call i32 @constant_time_le_size_t(i64 noundef %27, i64 noundef %28)
  %30 = load i64, ptr %5, align 8, !tbaa !11
  %31 = call i64 @constant_time_select_ulong(i32 noundef %29, i64 noundef 0, i64 noundef %30)
  call void @llvm.lifetime.end.p0(i64 8, ptr %5) #7
  ret i64 %31
}

; Function Attrs: nounwind uwtable
define hidden i32 @BN_bn2bin_padded(ptr noundef %0, i64 noundef %1, ptr noundef %2) #0 {
  %4 = alloca i32, align 4
  %5 = alloca ptr, align 8
  %6 = alloca i64, align 8
  %7 = alloca ptr, align 8
  %8 = alloca i64, align 8
  %9 = alloca i64, align 8
  %10 = alloca i32, align 4
  store ptr %0, ptr %5, align 8, !tbaa !6
  store i64 %1, ptr %6, align 8, !tbaa !11
  store ptr %2, ptr %7, align 8, !tbaa !13
  call void @llvm.lifetime.start.p0(i64 8, ptr %8) #7
  call void @llvm.lifetime.start.p0(i64 8, ptr %9) #7
  %11 = load ptr, ptr %7, align 8, !tbaa !13
  %12 = call i32 @BN_is_zero(ptr noundef %11)
  %13 = icmp ne i32 %12, 0
  br i1 %13, label %14, label %17

14:                                               ; preds = %3
  %15 = load ptr, ptr %5, align 8, !tbaa !6
  %16 = load i64, ptr %6, align 8, !tbaa !11
  call void @llvm.memset.p0.i64(ptr align 1 %15, i8 0, i64 %16, i1 false)
  store i32 1, ptr %4, align 4
  store i32 1, ptr %10, align 4
  br label %67

17:                                               ; preds = %3
  %18 = load ptr, ptr %7, align 8, !tbaa !13
  %19 = getelementptr inbounds nuw %struct.bignum_st, ptr %18, i32 0, i32 1
  %20 = load i32, ptr %19, align 8, !tbaa !15
  %21 = sext i32 %20 to i64
  %22 = load i64, ptr %6, align 8, !tbaa !11
  %23 = add i64 %22, 7
  %24 = udiv i64 %23, 8
  %25 = icmp ugt i64 %21, %24
  br i1 %25, label %26, label %27

26:                                               ; preds = %17
  store i32 0, ptr %4, align 4
  store i32 1, ptr %10, align 4
  br label %67

27:                                               ; preds = %17
  %28 = load i64, ptr %6, align 8, !tbaa !11
  %29 = urem i64 %28, 8
  %30 = icmp ne i64 %29, 0
  br i1 %30, label %31, label %44

31:                                               ; preds = %27
  %32 = load ptr, ptr %7, align 8, !tbaa !13
  %33 = load i64, ptr %6, align 8, !tbaa !11
  %34 = udiv i64 %33, 8
  %35 = call i64 @read_word_padded(ptr noundef %32, i64 noundef %34)
  store i64 %35, ptr %9, align 8, !tbaa !11
  %36 = load i64, ptr %9, align 8, !tbaa !11
  %37 = load i64, ptr %6, align 8, !tbaa !11
  %38 = urem i64 %37, 8
  %39 = mul i64 8, %38
  %40 = lshr i64 %36, %39
  %41 = icmp ne i64 %40, 0
  br i1 %41, label %42, label %43

42:                                               ; preds = %31
  store i32 0, ptr %4, align 4
  store i32 1, ptr %10, align 4
  br label %67

43:                                               ; preds = %31
  br label %44

44:                                               ; preds = %43, %27
  %45 = load i64, ptr %6, align 8, !tbaa !11
  store i64 %45, ptr %8, align 8, !tbaa !11
  br label %46

46:                                               ; preds = %50, %44
  %47 = load i64, ptr %8, align 8, !tbaa !11
  %48 = add i64 %47, -1
  store i64 %48, ptr %8, align 8, !tbaa !11
  %49 = icmp ne i64 %47, 0
  br i1 %49, label %50, label %66

50:                                               ; preds = %46
  %51 = load ptr, ptr %7, align 8, !tbaa !13
  %52 = load i64, ptr %8, align 8, !tbaa !11
  %53 = udiv i64 %52, 8
  %54 = call i64 @read_word_padded(ptr noundef %51, i64 noundef %53)
  store i64 %54, ptr %9, align 8, !tbaa !11
  %55 = load i64, ptr %9, align 8, !tbaa !11
  %56 = load i64, ptr %8, align 8, !tbaa !11
  %57 = urem i64 %56, 8
  %58 = mul i64 8, %57
  %59 = lshr i64 %55, %58
  %60 = trunc i64 %59 to i8
  %61 = zext i8 %60 to i32
  %62 = and i32 %61, 255
  %63 = trunc i32 %62 to i8
  %64 = load ptr, ptr %5, align 8, !tbaa !6
  %65 = getelementptr inbounds nuw i8, ptr %64, i32 1
  store ptr %65, ptr %5, align 8, !tbaa !6
  store i8 %63, ptr %64, align 1, !tbaa !21
  br label %46, !llvm.loop !26

66:                                               ; preds = %46
  store i32 1, ptr %4, align 4
  store i32 1, ptr %10, align 4
  br label %67

67:                                               ; preds = %66, %42, %26, %14
  call void @llvm.lifetime.end.p0(i64 8, ptr %9) #7
  call void @llvm.lifetime.end.p0(i64 8, ptr %8) #7
  %68 = load i32, ptr %4, align 4
  ret i32 %68
}