; Function Attrs: nounwind uwtable
define hidden range(i32 0, 2) i32 @BN_bn2bin_padded(ptr noundef writeonly captures(none) %0, i64 noundef %1, ptr noundef %2) local_unnamed_addr #0 {
  %4 = tail call i32 @BN_is_zero(ptr noundef %2) #9
  %.not = icmp eq i32 %4, 0
  br i1 %.not, label %6, label %5

5:                                                ; preds = %3
  tail call void @llvm.memset.p0.i64(ptr align 1 %0, i8 0, i64 %1, i1 false)
  br label %.loopexit

6:                                                ; preds = %3
  %7 = getelementptr inbounds nuw i8, ptr %2, i64 8
  %8 = load i32, ptr %7, align 8, !tbaa !6
  %9 = sext i32 %8 to i64
  %10 = add i64 %1, 7
  %11 = lshr i64 %10, 3
  %12 = icmp ult i64 %11, %9
  br i1 %12, label %.loopexit, label %13

13:                                               ; preds = %6
  %14 = and i64 %1, 7
  %.not20 = icmp eq i64 %14, 0
  br i1 %.not20, label %30, label %15

15:                                               ; preds = %13
  %16 = lshr i64 %1, 3
  %17 = load ptr, ptr %2, align 8, !tbaa !15
  %18 = getelementptr inbounds nuw i8, ptr %2, i64 12
  %19 = load i32, ptr %18, align 4, !tbaa !21
  %20 = sext i32 %19 to i64
  %21 = add nsw i32 %19, -1
  %22 = sext i32 %21 to i64
  %isneg.not.i = icmp slt i64 %16, %20
  %23 = select i1 %isneg.not.i, i64 %16, i64 %22
  %24 = getelementptr inbounds nuw i64, ptr %17, i64 %23
  %25 = load i64, ptr %24, align 8, !tbaa !16
  %26 = icmp samesign ult i64 %16, %9
  %27 = select i1 %26, i64 %25, i64 0
  %28 = shl nuw nsw i64 %14, 3
  %29 = lshr i64 %27, %28
  %.not21 = icmp eq i64 %29, 0
  br i1 %.not21, label %.lr.ph, label %.loopexit

30:                                               ; preds = %13
  %.not2224 = icmp eq i64 %1, 0
  br i1 %.not2224, label %.loopexit, label %.lr.ph

.lr.ph:                                           ; preds = %15, %30
  %31 = getelementptr inbounds nuw i8, ptr %2, i64 12
  br label %32

32:                                               ; preds = %.lr.ph, %32
  %.026 = phi i64 [ %1, %.lr.ph ], [ %33, %32 ]
  %.01825 = phi ptr [ %0, %.lr.ph ], [ %51, %32 ]
  %33 = add i64 %.026, -1
  %34 = lshr i64 %33, 3
  %35 = load ptr, ptr %2, align 8, !tbaa !15
  %36 = load i32, ptr %31, align 4, !tbaa !21
  %37 = sext i32 %36 to i64
  %38 = add nsw i32 %36, -1
  %39 = sext i32 %38 to i64
  %isneg.not.i23 = icmp slt i64 %34, %37
  %40 = select i1 %isneg.not.i23, i64 %34, i64 %39
  %41 = getelementptr inbounds nuw i64, ptr %35, i64 %40
  %42 = load i64, ptr %41, align 8, !tbaa !16
  %43 = load i32, ptr %7, align 8, !tbaa !6
  %44 = sext i32 %43 to i64
  %45 = icmp slt i64 %34, %44
  %46 = select i1 %45, i64 %42, i64 0
  %47 = shl i64 %33, 3
  %48 = and i64 %47, 56
  %49 = lshr i64 %46, %48
  %50 = trunc i64 %49 to i8
  %51 = getelementptr inbounds nuw i8, ptr %.01825, i64 1
  store i8 %50, ptr %.01825, align 1, !tbaa !14
  %.not22 = icmp eq i64 %33, 0
  br i1 %.not22, label %.loopexit, label %32, !llvm.loop !22

.loopexit:                                        ; preds = %32, %30, %15, %6, %5
  %.017 = phi i32 [ 1, %5 ], [ 0, %6 ], [ 0, %15 ], [ 1, %30 ], [ 1, %32 ]
  ret i32 %.017
}